target datalayout = "e-m:e-p270:32:32-p271:32:32-p272:64:64-i64:64-i128:128-f80:128-n8:16:32:64-S128"
target triple = "x86_64-pc-linux-gnu"

%struct.Vec_Int_t_ = type { i32, i32, ptr }
%struct.Gia_Obj_t_ = type <{ i64, i32 }>
%struct.Cec_ManPat_t_ = type { ptr, ptr, ptr, i32, i32, i32, i32, i32, i32, i32, i32, i32, i64, i64, i64, i64, i64, i64, i64 }
%struct.Cec_ManSat_t_ = type { ptr, ptr, ptr, ptr, ptr, i32, ptr, ptr, i32, i32, ptr, ptr, ptr, i32, i32, i32, i32, i32, i32, i32, i32, i32, i32, i32, i32 }
%struct.timespec = type { i64, i64 }

; Function Attrs: inlinehint nounwind uwtable
define internal i32 @Vec_IntEntry(ptr noundef %0, i32 noundef %1) #2 {
  %3 = alloca ptr, align 8
  %4 = alloca i32, align 4
  store ptr %0, ptr %3, align 8, !tbaa !34
  store i32 %1, ptr %4, align 4, !tbaa !12
  %5 = load ptr, ptr %3, align 8, !tbaa !34
  %6 = getelementptr inbounds nuw %struct.Vec_Int_t_, ptr %5, i32 0, i32 2
  %7 = load ptr, ptr %6, align 8, !tbaa !37
  %8 = load i32, ptr %4, align 4, !tbaa !12
  %9 = sext i32 %8 to i64
  %10 = getelementptr inbounds i32, ptr %7, i64 %9
  %11 = load i32, ptr %10, align 4, !tbaa !12
  ret i32 %11
}

; Function Attrs: inlinehint nounwind uwtable
define internal void @Cec_ManPatStore(ptr noundef %0, ptr noundef %1) #2 {
  %3 = alloca ptr, align 8
  %4 = alloca ptr, align 8
  %5 = alloca i32, align 4
  %6 = alloca i32, align 4
  %7 = alloca i32, align 4
  store ptr %0, ptr %3, align 8, !tbaa !44
  store ptr %1, ptr %4, align 8, !tbaa !34
  call void @llvm.lifetime.start.p0(i64 4, ptr %5) #11
  call void @llvm.lifetime.start.p0(i64 4, ptr %6) #11
  call void @llvm.lifetime.start.p0(i64 4, ptr %7) #11
  %8 = load ptr, ptr %3, align 8, !tbaa !44
  %9 = load ptr, ptr %4, align 8, !tbaa !34
  %10 = call i32 @Vec_IntSize(ptr noundef %9)
  call void @Cec_ManPatStoreNum(ptr noundef %8, i32 noundef %10)
  %11 = load ptr, ptr %4, align 8, !tbaa !34
  %12 = call i32 @Vec_IntEntry(ptr noundef %11, i32 noundef 0)
  store i32 %12, ptr %7, align 4, !tbaa !12
  %13 = load ptr, ptr %3, align 8, !tbaa !44
  %14 = load i32, ptr %7, align 4, !tbaa !12
  call void @Cec_ManPatStoreNum(ptr noundef %13, i32 noundef %14)
  store i32 1, ptr %5, align 4, !tbaa !12
  br label %15

15:                                               ; preds = %32, %2
  %16 = load i32, ptr %5, align 4, !tbaa !12
  %17 = load ptr, ptr %4, align 8, !tbaa !34
  %18 = call i32 @Vec_IntSize(ptr noundef %17)
  %19 = icmp slt i32 %16, %18
  br i1 %19, label %20, label %24

20:                                               ; preds = %15
  %21 = load ptr, ptr %4, align 8, !tbaa !34
  %22 = load i32, ptr %5, align 4, !tbaa !12
  %23 = call i32 @Vec_IntEntry(ptr noundef %21, i32 noundef %22)
  store i32 %23, ptr %6, align 4, !tbaa !12
  br label %24

24:                                               ; preds = %20, %15
  %25 = phi i1 [ false, %15 ], [ true, %20 ]
  br i1 %25, label %26, label %35

26:                                               ; preds = %24
  %27 = load ptr, ptr %3, align 8, !tbaa !44
  %28 = load i32, ptr %6, align 4, !tbaa !12
  %29 = load i32, ptr %7, align 4, !tbaa !12
  %30 = sub nsw i32 %28, %29
  call void @Cec_ManPatStoreNum(ptr noundef %27, i32 noundef %30)
  %31 = load i32, ptr %6, align 4, !tbaa !12
  store i32 %31, ptr %7, align 4, !tbaa !12
  br label %32

32:                                               ; preds = %26
  %33 = load i32, ptr %5, align 4, !tbaa !12
  %34 = add nsw i32 %33, 1
  store i32 %34, ptr %5, align 4, !tbaa !12
  br label %15, !llvm.loop !61

35:                                               ; preds = %24
  call void @llvm.lifetime.end.p0(i64 4, ptr %7) #11
  call void @llvm.lifetime.end.p0(i64 4, ptr %6) #11
  call void @llvm.lifetime.end.p0(i64 4, ptr %5) #11
  ret void
}

; Function Attrs: inlinehint nounwind uwtable
define internal void @Vec_IntSort(ptr noundef %0, i32 noundef %1) #2 {
  %3 = alloca ptr, align 8
  %4 = alloca i32, align 4
  store ptr %0, ptr %3, align 8, !tbaa !34
  store i32 %1, ptr %4, align 4, !tbaa !12
  %5 = load i32, ptr %4, align 4, !tbaa !12
  %6 = icmp ne i32 %5, 0
  br i1 %6, label %7, label %15

7:                                                ; preds = %2
  %8 = load ptr, ptr %3, align 8, !tbaa !34
  %9 = getelementptr inbounds nuw %struct.Vec_Int_t_, ptr %8, i32 0, i32 2
  %10 = load ptr, ptr %9, align 8, !tbaa !37
  %11 = load ptr, ptr %3, align 8, !tbaa !34
  %12 = getelementptr inbounds nuw %struct.Vec_Int_t_, ptr %11, i32 0, i32 1
  %13 = load i32, ptr %12, align 4, !tbaa !35
  %14 = sext i32 %13 to i64
  call void @qsort(ptr noundef %10, i64 noundef %14, i64 noundef 4, ptr noundef @Vec_IntSortCompare2)
  br label %23

15:                                               ; preds = %2
  %16 = load ptr, ptr %3, align 8, !tbaa !34
  %17 = getelementptr inbounds nuw %struct.Vec_Int_t_, ptr %16, i32 0, i32 2
  %18 = load ptr, ptr %17, align 8, !tbaa !37
  %19 = load ptr, ptr %3, align 8, !tbaa !34
  %20 = getelementptr inbounds nuw %struct.Vec_Int_t_, ptr %19, i32 0, i32 1
  %21 = load i32, ptr %20, align 4, !tbaa !35
  %22 = sext i32 %21 to i64
  call void @qsort(ptr noundef %18, i64 noundef %22, i64 noundef 4, ptr noundef @Vec_IntSortCompare1)
  br label %23

23:                                               ; preds = %15, %7
  ret void
}

; Function Attrs: inlinehint nounwind uwtable
define internal i32 @Vec_IntSize(ptr noundef %0) #2 {
  %2 = alloca ptr, align 8
  store ptr %0, ptr %2, align 8, !tbaa !34
  %3 = load ptr, ptr %2, align 8, !tbaa !34
  %4 = getelementptr inbounds nuw %struct.Vec_Int_t_, ptr %3, i32 0, i32 1
  %5 = load i32, ptr %4, align 4, !tbaa !35
  ret i32 %5
}

; Function Attrs: inlinehint nounwind uwtable
define internal void @Vec_IntClear(ptr noundef %0) #2 {
  %2 = alloca ptr, align 8
  store ptr %0, ptr %2, align 8, !tbaa !34
  %3 = load ptr, ptr %2, align 8, !tbaa !34
  %4 = getelementptr inbounds nuw %struct.Vec_Int_t_, ptr %3, i32 0, i32 1
  store i32 0, ptr %4, align 4, !tbaa !35
  ret void
}

; Function Attrs: inlinehint nounwind uwtable
define internal ptr @Gia_ObjFanin0(ptr noundef %0) #2 {
  %2 = alloca ptr, align 8
  store ptr %0, ptr %2, align 8, !tbaa !10
  %3 = load ptr, ptr %2, align 8, !tbaa !10
  %4 = load ptr, ptr %2, align 8, !tbaa !10
  %5 = load i64, ptr %4, align 4
  %6 = and i64 %5, 536870911
  %7 = trunc i64 %6 to i32
  %8 = sext i32 %7 to i64
  %9 = sub i64 0, %8
  %10 = getelementptr inbounds %struct.Gia_Obj_t_, ptr %3, i64 %9
  ret ptr %10
}

; Function Attrs: inlinehint nounwind uwtable
define internal i64 @Abc_Clock() #2 {
  %1 = alloca i64, align 8
  %2 = alloca %struct.timespec, align 8
  %3 = alloca i32, align 4
  %4 = alloca i64, align 8
  call void @llvm.lifetime.start.p0(i64 16, ptr %2) #11
  %5 = call i32 @clock_gettime(i32 noundef 1, ptr noundef %2) #11
  %6 = icmp slt i32 %5, 0
  br i1 %6, label %7, label %8

7:                                                ; preds = %0
  store i64 -1, ptr %1, align 8
  store i32 1, ptr %3, align 4
  br label %19

8:                                                ; preds = %0
  call void @llvm.lifetime.start.p0(i64 8, ptr %4) #11
  %9 = getelementptr inbounds nuw %struct.timespec, ptr %2, i32 0, i32 0
  %10 = load i64, ptr %9, align 8, !tbaa !90
  %11 = mul nsw i64 %10, 1000000
  store i64 %11, ptr %4, align 8, !tbaa !46
  %12 = getelementptr inbounds nuw %struct.timespec, ptr %2, i32 0, i32 1
  %13 = load i64, ptr %12, align 8, !tbaa !92
  %14 = mul nsw i64 %13, 1000000
  %15 = sdiv i64 %14, 1000000000
  %16 = load i64, ptr %4, align 8, !tbaa !46
  %17 = add nsw i64 %16, %15
  store i64 %17, ptr %4, align 8, !tbaa !46
  %18 = load i64, ptr %4, align 8, !tbaa !46
  store i64 %18, ptr %1, align 8
  store i32 1, ptr %3, align 4
  call void @llvm.lifetime.end.p0(i64 8, ptr %4) #11
  br label %19

19:                                               ; preds = %8, %7
  call void @llvm.lifetime.end.p0(i64 16, ptr %2) #11
  %20 = load i64, ptr %1, align 8
  ret i64 %20
}

; Function Attrs: nounwind uwtable
define void @Cec_ManPatSavePattern(ptr noundef %0, ptr noundef %1, ptr noundef %2) #0 {
  %4 = alloca ptr, align 8
  %5 = alloca ptr, align 8
  %6 = alloca ptr, align 8
  %7 = alloca ptr, align 8
  %8 = alloca i32, align 4
  %9 = alloca i64, align 8
  store ptr %0, ptr %4, align 8, !tbaa !44
  store ptr %1, ptr %5, align 8, !tbaa !3
  store ptr %2, ptr %6, align 8, !tbaa !10
  call void @llvm.lifetime.start.p0(i64 8, ptr %7) #11
  call void @llvm.lifetime.start.p0(i64 4, ptr %8) #11
  call void @llvm.lifetime.start.p0(i64 8, ptr %9) #11
  %10 = call i64 @Abc_Clock()
  store i64 %10, ptr %9, align 8, !tbaa !46
  %11 = load ptr, ptr %4, align 8, !tbaa !44
  %12 = getelementptr inbounds nuw %struct.Cec_ManPat_t_, ptr %11, i32 0, i32 4
  %13 = load i32, ptr %12, align 4, !tbaa !47
  %14 = add nsw i32 %13, 1
  store i32 %14, ptr %12, align 4, !tbaa !47
  %15 = load ptr, ptr %4, align 8, !tbaa !44
  %16 = getelementptr inbounds nuw %struct.Cec_ManPat_t_, ptr %15, i32 0, i32 5
  %17 = load i32, ptr %16, align 8, !tbaa !49
  %18 = add nsw i32 %17, 1
  store i32 %18, ptr %16, align 8, !tbaa !49
  %19 = load ptr, ptr %5, align 8, !tbaa !3
  %20 = getelementptr inbounds nuw %struct.Cec_ManSat_t_, ptr %19, i32 0, i32 1
  %21 = load ptr, ptr %20, align 8, !tbaa !50
  call void @Gia_ManIncrementTravId(ptr noundef %21)
  %22 = load ptr, ptr %5, align 8, !tbaa !3
  %23 = load ptr, ptr %5, align 8, !tbaa !3
  %24 = getelementptr inbounds nuw %struct.Cec_ManSat_t_, ptr %23, i32 0, i32 1
  %25 = load ptr, ptr %24, align 8, !tbaa !50
  %26 = load ptr, ptr %6, align 8, !tbaa !10
  %27 = call ptr @Gia_ObjFanin0(ptr noundef %26)
  %28 = call i32 @Cec_ManPatComputePattern_rec(ptr noundef %22, ptr noundef %25, ptr noundef %27)
  store i32 %28, ptr %8, align 4, !tbaa !12
  %29 = load i32, ptr %8, align 4, !tbaa !12
  %30 = load ptr, ptr %4, align 8, !tbaa !44
  %31 = getelementptr inbounds nuw %struct.Cec_ManPat_t_, ptr %30, i32 0, i32 6
  %32 = load i32, ptr %31, align 4, !tbaa !54
  %33 = add nsw i32 %32, %29
  store i32 %33, ptr %31, align 4, !tbaa !54
  %34 = load i32, ptr %8, align 4, !tbaa !12
  %35 = load ptr, ptr %4, align 8, !tbaa !44
  %36 = getelementptr inbounds nuw %struct.Cec_ManPat_t_, ptr %35, i32 0, i32 7
  %37 = load i32, ptr %36, align 8, !tbaa !55
  %38 = add nsw i32 %37, %34
  store i32 %38, ptr %36, align 8, !tbaa !55
  %39 = load ptr, ptr %4, align 8, !tbaa !44
  %40 = getelementptr inbounds nuw %struct.Cec_ManPat_t_, ptr %39, i32 0, i32 0
  %41 = load ptr, ptr %40, align 8, !tbaa !56
  call void @Vec_IntClear(ptr noundef %41)
  %42 = load ptr, ptr %5, align 8, !tbaa !3
  %43 = getelementptr inbounds nuw %struct.Cec_ManSat_t_, ptr %42, i32 0, i32 1
  %44 = load ptr, ptr %43, align 8, !tbaa !50
  call void @Gia_ManIncrementTravId(ptr noundef %44)
  %45 = load ptr, ptr %5, align 8, !tbaa !3
  %46 = getelementptr inbounds nuw %struct.Cec_ManSat_t_, ptr %45, i32 0, i32 1
  %47 = load ptr, ptr %46, align 8, !tbaa !50
  %48 = load ptr, ptr %6, align 8, !tbaa !10
  %49 = call ptr @Gia_ObjFanin0(ptr noundef %48)
  %50 = load ptr, ptr %4, align 8, !tbaa !44
  %51 = getelementptr inbounds nuw %struct.Cec_ManPat_t_, ptr %50, i32 0, i32 0
  %52 = load ptr, ptr %51, align 8, !tbaa !56
  call void @Cec_ManPatComputePattern1_rec(ptr noundef %47, ptr noundef %49, ptr noundef %52)
  %53 = load ptr, ptr %4, align 8, !tbaa !44
  %54 = getelementptr inbounds nuw %struct.Cec_ManPat_t_, ptr %53, i32 0, i32 1
  %55 = load ptr, ptr %54, align 8, !tbaa !57
  call void @Vec_IntClear(ptr noundef %55)
  %56 = load ptr, ptr %5, align 8, !tbaa !3
  %57 = getelementptr inbounds nuw %struct.Cec_ManSat_t_, ptr %56, i32 0, i32 1
  %58 = load ptr, ptr %57, align 8, !tbaa !50
  call void @Gia_ManIncrementTravId(ptr noundef %58)
  %59 = load ptr, ptr %5, align 8, !tbaa !3
  %60 = getelementptr inbounds nuw %struct.Cec_ManSat_t_, ptr %59, i32 0, i32 1
  %61 = load ptr, ptr %60, align 8, !tbaa !50
  %62 = load ptr, ptr %6, align 8, !tbaa !10
  %63 = call ptr @Gia_ObjFanin0(ptr noundef %62)
  %64 = load ptr, ptr %4, align 8, !tbaa !44
  %65 = getelementptr inbounds nuw %struct.Cec_ManPat_t_, ptr %64, i32 0, i32 1
  %66 = load ptr, ptr %65, align 8, !tbaa !57
  call void @Cec_ManPatComputePattern2_rec(ptr noundef %61, ptr noundef %63, ptr noundef %66)
  %67 = load ptr, ptr %4, align 8, !tbaa !44
  %68 = getelementptr inbounds nuw %struct.Cec_ManPat_t_, ptr %67, i32 0, i32 0
  %69 = load ptr, ptr %68, align 8, !tbaa !56
  %70 = call i32 @Vec_IntSize(ptr noundef %69)
  %71 = load ptr, ptr %4, align 8, !tbaa !44
  %72 = getelementptr inbounds nuw %struct.Cec_ManPat_t_, ptr %71, i32 0, i32 1
  %73 = load ptr, ptr %72, align 8, !tbaa !57
  %74 = call i32 @Vec_IntSize(ptr noundef %73)
  %75 = icmp slt i32 %70, %74
  br i1 %75, label %76, label %80

76:                                               ; preds = %3
  %77 = load ptr, ptr %4, align 8, !tbaa !44
  %78 = getelementptr inbounds nuw %struct.Cec_ManPat_t_, ptr %77, i32 0, i32 0
  %79 = load ptr, ptr %78, align 8, !tbaa !56
  br label %84

80:                                               ; preds = %3
  %81 = load ptr, ptr %4, align 8, !tbaa !44
  %82 = getelementptr inbounds nuw %struct.Cec_ManPat_t_, ptr %81, i32 0, i32 1
  %83 = load ptr, ptr %82, align 8, !tbaa !57
  br label %84

84:                                               ; preds = %80, %76
  %85 = phi ptr [ %79, %76 ], [ %83, %80 ]
  store ptr %85, ptr %7, align 8, !tbaa !34
  %86 = load ptr, ptr %7, align 8, !tbaa !34
  %87 = call i32 @Vec_IntSize(ptr noundef %86)
  %88 = load ptr, ptr %4, align 8, !tbaa !44
  %89 = getelementptr inbounds nuw %struct.Cec_ManPat_t_, ptr %88, i32 0, i32 8
  %90 = load i32, ptr %89, align 4, !tbaa !58
  %91 = add nsw i32 %90, %87
  store i32 %91, ptr %89, align 4, !tbaa !58
  %92 = load ptr, ptr %7, align 8, !tbaa !34
  %93 = call i32 @Vec_IntSize(ptr noundef %92)
  %94 = load ptr, ptr %4, align 8, !tbaa !44
  %95 = getelementptr inbounds nuw %struct.Cec_ManPat_t_, ptr %94, i32 0, i32 9
  %96 = load i32, ptr %95, align 8, !tbaa !59
  %97 = add nsw i32 %96, %93
  store i32 %97, ptr %95, align 8, !tbaa !59
  %98 = load ptr, ptr %7, align 8, !tbaa !34
  call void @Vec_IntSort(ptr noundef %98, i32 noundef 0)
  %99 = load ptr, ptr %4, align 8, !tbaa !44
  %100 = load ptr, ptr %7, align 8, !tbaa !34
  call void @Cec_ManPatStore(ptr noundef %99, ptr noundef %100)
  %101 = call i64 @Abc_Clock()
  %102 = load i64, ptr %9, align 8, !tbaa !46
  %103 = sub nsw i64 %101, %102
  %104 = load ptr, ptr %4, align 8, !tbaa !44
  %105 = getelementptr inbounds nuw %struct.Cec_ManPat_t_, ptr %104, i32 0, i32 17
  %106 = load i64, ptr %105, align 8, !tbaa !60
  %107 = add nsw i64 %106, %103
  store i64 %107, ptr %105, align 8, !tbaa !60
  call void @llvm.lifetime.end.p0(i64 8, ptr %9) #11
  call void @llvm.lifetime.end.p0(i64 4, ptr %8) #11
  call void @llvm.lifetime.end.p0(i64 8, ptr %7) #11
  ret void
}