; Function Attrs: nounwind uwtable
define void @Cec_ManPatSavePattern(ptr noundef captures(none) %0, ptr noundef %1, ptr noundef %2) local_unnamed_addr #0 {
  %4 = alloca %struct.timespec, align 8
  %5 = alloca %struct.timespec, align 8
  call void @llvm.lifetime.start.p0(i64 16, ptr nonnull %5) #18
  %6 = call i32 @clock_gettime(i32 noundef 1, ptr noundef nonnull %5) #18
  %7 = icmp slt i32 %6, 0
  br i1 %7, label %Abc_Clock.exit, label %8

8:                                                ; preds = %3
  %9 = load i64, ptr %5, align 8, !tbaa !42
  %.neg40 = mul i64 %9, -1000000
  %10 = getelementptr inbounds nuw i8, ptr %5, i64 8
  %11 = load i64, ptr %10, align 8, !tbaa !44
  %.neg = sdiv i64 %11, -1000
  %.neg41 = add i64 %.neg, %.neg40
  br label %Abc_Clock.exit

Abc_Clock.exit:                                   ; preds = %3, %8
  %.0.i.neg = phi i64 [ %.neg41, %8 ], [ 1, %3 ]
  call void @llvm.lifetime.end.p0(i64 16, ptr nonnull %5) #18
  %12 = getelementptr inbounds nuw i8, ptr %0, i64 28
  %13 = load i32, ptr %12, align 4, !tbaa !45
  %14 = add nsw i32 %13, 1
  store i32 %14, ptr %12, align 4, !tbaa !45
  %15 = getelementptr inbounds nuw i8, ptr %0, i64 32
  %16 = load i32, ptr %15, align 8, !tbaa !47
  %17 = add nsw i32 %16, 1
  store i32 %17, ptr %15, align 8, !tbaa !47
  %18 = getelementptr inbounds nuw i8, ptr %1, i64 8
  %19 = load ptr, ptr %18, align 8, !tbaa !48
  call void @Gia_ManIncrementTravId(ptr noundef %19) #18
  %20 = load ptr, ptr %18, align 8, !tbaa !48
  %21 = load i64, ptr %2, align 4
  %22 = and i64 %21, 536870911
  %23 = sub nsw i64 0, %22
  %24 = getelementptr inbounds %struct.Gia_Obj_t_, ptr %2, i64 %23
  %25 = call i32 @Cec_ManPatComputePattern_rec(ptr noundef %1, ptr noundef %20, ptr noundef nonnull %24)
  %26 = getelementptr inbounds nuw i8, ptr %0, i64 36
  %27 = load i32, ptr %26, align 4, !tbaa !52
  %28 = add nsw i32 %27, %25
  store i32 %28, ptr %26, align 4, !tbaa !52
  %29 = getelementptr inbounds nuw i8, ptr %0, i64 40
  %30 = load i32, ptr %29, align 8, !tbaa !53
  %31 = add nsw i32 %30, %25
  store i32 %31, ptr %29, align 8, !tbaa !53
  %32 = load ptr, ptr %0, align 8, !tbaa !54
  %33 = getelementptr inbounds nuw i8, ptr %32, i64 4
  store i32 0, ptr %33, align 4, !tbaa !31
  %34 = load ptr, ptr %18, align 8, !tbaa !48
  call void @Gia_ManIncrementTravId(ptr noundef %34) #18
  %35 = load ptr, ptr %18, align 8, !tbaa !48
  %36 = load i64, ptr %2, align 4
  %37 = and i64 %36, 536870911
  %38 = sub nsw i64 0, %37
  %39 = getelementptr inbounds %struct.Gia_Obj_t_, ptr %2, i64 %38
  %40 = load ptr, ptr %0, align 8, !tbaa !54
  call void @Cec_ManPatComputePattern1_rec(ptr noundef %35, ptr noundef nonnull %39, ptr noundef %40)
  %41 = getelementptr inbounds nuw i8, ptr %0, i64 8
  %42 = load ptr, ptr %41, align 8, !tbaa !55
  %43 = getelementptr inbounds nuw i8, ptr %42, i64 4
  store i32 0, ptr %43, align 4, !tbaa !31
  %44 = load ptr, ptr %18, align 8, !tbaa !48
  call void @Gia_ManIncrementTravId(ptr noundef %44) #18
  %45 = load ptr, ptr %18, align 8, !tbaa !48
  %46 = load i64, ptr %2, align 4
  %47 = and i64 %46, 536870911
  %48 = sub nsw i64 0, %47
  %49 = getelementptr inbounds %struct.Gia_Obj_t_, ptr %2, i64 %48
  %50 = load ptr, ptr %41, align 8, !tbaa !55
  call void @Cec_ManPatComputePattern2_rec(ptr noundef %45, ptr noundef nonnull %49, ptr noundef %50)
  %51 = load ptr, ptr %0, align 8, !tbaa !54
  %52 = getelementptr i8, ptr %51, i64 4
  %.val34 = load i32, ptr %52, align 4, !tbaa !31
  %53 = load ptr, ptr %41, align 8, !tbaa !55
  %54 = getelementptr i8, ptr %53, i64 4
  %.val33 = load i32, ptr %54, align 4, !tbaa !31
  %55 = icmp slt i32 %.val34, %.val33
  %56 = select i1 %55, ptr %51, ptr %53
  %57 = getelementptr i8, ptr %56, i64 4
  %.val32 = load i32, ptr %57, align 4, !tbaa !31
  %58 = getelementptr inbounds nuw i8, ptr %0, i64 44
  %59 = load i32, ptr %58, align 4, !tbaa !56
  %60 = add nsw i32 %59, %.val32
  store i32 %60, ptr %58, align 4, !tbaa !56
  %61 = getelementptr inbounds nuw i8, ptr %0, i64 48
  %62 = load i32, ptr %61, align 8, !tbaa !57
  %63 = add nsw i32 %62, %.val32
  store i32 %63, ptr %61, align 8, !tbaa !57
  %64 = getelementptr i8, ptr %56, i64 8
  %.val36 = load ptr, ptr %64, align 8, !tbaa !33
  %65 = sext i32 %.val32 to i64
  call void @qsort(ptr noundef %.val36, i64 noundef %65, i64 noundef 4, ptr noundef nonnull @Vec_IntSortCompare1) #18
  %.val14.i = load i32, ptr %57, align 4, !tbaa !31
  call fastcc void @Cec_ManPatStoreNum(ptr noundef nonnull readonly %0, i32 noundef %.val14.i)
  %.val16.i = load ptr, ptr %64, align 8, !tbaa !33
  %66 = load i32, ptr %.val16.i, align 4, !tbaa !29
  call fastcc void @Cec_ManPatStoreNum(ptr noundef nonnull readonly %0, i32 noundef %66)
  %.val17.i = load i32, ptr %57, align 4, !tbaa !31
  %67 = icmp sgt i32 %.val17.i, 1
  br i1 %67, label %.lr.ph.i, label %Cec_ManPatStore.exit

.lr.ph.i:                                         ; preds = %Abc_Clock.exit, %.lr.ph.i
  %indvars.iv.i = phi i64 [ %indvars.iv.next.i, %.lr.ph.i ], [ 1, %Abc_Clock.exit ]
  %.019.i = phi i32 [ %69, %.lr.ph.i ], [ %66, %Abc_Clock.exit ]
  %.val15.i = load ptr, ptr %64, align 8, !tbaa !33
  %68 = getelementptr inbounds nuw i32, ptr %.val15.i, i64 %indvars.iv.i
  %69 = load i32, ptr %68, align 4, !tbaa !29
  %70 = sub nsw i32 %69, %.019.i
  call fastcc void @Cec_ManPatStoreNum(ptr noundef nonnull readonly %0, i32 noundef %70)
  %indvars.iv.next.i = add nuw nsw i64 %indvars.iv.i, 1
  %.val.i = load i32, ptr %57, align 4, !tbaa !31
  %71 = sext i32 %.val.i to i64
  %72 = icmp slt i64 %indvars.iv.next.i, %71
  br i1 %72, label %.lr.ph.i, label %Cec_ManPatStore.exit, !llvm.loop !58

Cec_ManPatStore.exit:                             ; preds = %.lr.ph.i, %Abc_Clock.exit
  call void @llvm.lifetime.start.p0(i64 16, ptr nonnull %4) #18
  %73 = call i32 @clock_gettime(i32 noundef 1, ptr noundef nonnull %4) #18
  %74 = icmp slt i32 %73, 0
  br i1 %74, label %Abc_Clock.exit38, label %75

75:                                               ; preds = %Cec_ManPatStore.exit
  %76 = load i64, ptr %4, align 8, !tbaa !42
  %77 = mul nsw i64 %76, 1000000
  %78 = getelementptr inbounds nuw i8, ptr %4, i64 8
  %79 = load i64, ptr %78, align 8, !tbaa !44
  %80 = sdiv i64 %79, 1000
  %81 = add nsw i64 %80, %77
  br label %Abc_Clock.exit38

Abc_Clock.exit38:                                 ; preds = %Cec_ManPatStore.exit, %75
  %.0.i37 = phi i64 [ %81, %75 ], [ -1, %Cec_ManPatStore.exit ]
  call void @llvm.lifetime.end.p0(i64 16, ptr nonnull %4) #18
  %82 = add i64 %.0.i37, %.0.i.neg
  %83 = getelementptr inbounds nuw i8, ptr %0, i64 104
  %84 = load i64, ptr %83, align 8, !tbaa !59
  %85 = add nsw i64 %82, %84
  store i64 %85, ptr %83, align 8, !tbaa !59
  ret void
}